; Function Attrs: null_pointer_is_valid sspstrong uwtable
define internal fastcc ptr @conversation_lookup_no_ports(i32 noundef %0, ptr noundef readonly captures(none) %1, ptr noundef readonly captures(none) %2, i32 noundef %3) unnamed_addr #0 {
  %5 = alloca [3 x %struct.conversation_element], align 16
  call void @llvm.lifetime.start.p0(i64 96, ptr nonnull %5) #15
  store i32 1, ptr %5, align 16
  %6 = getelementptr inbounds nuw i8, ptr %5, i64 4
  store i32 0, ptr %6, align 4
  %7 = getelementptr inbounds nuw i8, ptr %5, i64 8
  call void @llvm.memcpy.p0.p0.i64(ptr noundef nonnull align 8 dereferenceable(24) %7, ptr noundef align 8 dereferenceable(24) %1, i64 24, i1 false)
  %8 = getelementptr inbounds nuw i8, ptr %5, i64 32
  store i32 1, ptr %8, align 16
  %9 = getelementptr inbounds nuw i8, ptr %5, i64 36
  store i32 0, ptr %9, align 4
  %10 = getelementptr inbounds nuw i8, ptr %5, i64 40
  call void @llvm.memcpy.p0.p0.i64(ptr noundef nonnull align 8 dereferenceable(24) %10, ptr noundef align 8 dereferenceable(24) %2, i64 24, i1 false)
  %11 = getelementptr inbounds nuw i8, ptr %5, i64 64
  %12 = getelementptr inbounds nuw i8, ptr %5, i64 72
  call void @llvm.memset.p0.i64(ptr noundef nonnull align 16 dereferenceable(32) %11, i8 0, i64 32, i1 false)
  store i32 %3, ptr %12, align 8
  %13 = load ptr, ptr @conversation_hashtable_exact_addr, align 8
  %14 = call ptr @wmem_map_lookup(ptr noundef %13, ptr noundef nonnull %5)
  %.not.i = icmp eq ptr %14, null
  br i1 %.not.i, label %conversation_lookup_hashtable.exit, label %15

15:                                               ; preds = %4
  %16 = getelementptr inbounds nuw i8, ptr %14, i64 28
  %17 = load i32, ptr %16, align 4
  %.not33.i = icmp ugt i32 %17, %0
  br i1 %.not33.i, label %conversation_lookup_hashtable.exit, label %18

18:                                               ; preds = %15
  %19 = getelementptr inbounds nuw i8, ptr %14, i64 8
  %20 = load ptr, ptr %19, align 8
  %.not34.i = icmp eq ptr %20, null
  br i1 %.not34.i, label %24, label %21

21:                                               ; preds = %18
  %22 = getelementptr inbounds nuw i8, ptr %20, i64 28
  %23 = load i32, ptr %22, align 4
  %.not35.i = icmp ugt i32 %23, %0
  br i1 %.not35.i, label %24, label %conversation_lookup_hashtable.exit

24:                                               ; preds = %21, %18
  %25 = getelementptr inbounds nuw i8, ptr %14, i64 16
  %26 = load ptr, ptr %25, align 8
  %.not36.i = icmp eq ptr %26, null
  br i1 %.not36.i, label %.preheader, label %27

27:                                               ; preds = %24
  %28 = getelementptr inbounds nuw i8, ptr %26, i64 28
  %29 = load i32, ptr %28, align 4
  %.not37.i = icmp ugt i32 %29, %0
  %spec.select.i = select i1 %.not37.i, ptr %14, ptr %26
  br label %.preheader

.preheader:                                       ; preds = %27, %24
  %.02644.i.ph = phi ptr [ %spec.select.i, %27 ], [ %14, %24 ]
  br label %30

30:                                               ; preds = %.preheader, %33
  %.245.i = phi ptr [ %spec.select41.i, %33 ], [ %.02644.i.ph, %.preheader ]
  %.02644.i = phi ptr [ %37, %33 ], [ %.02644.i.ph, %.preheader ]
  %31 = getelementptr inbounds nuw i8, ptr %.02644.i, i64 28
  %32 = load i32, ptr %31, align 4
  %.not39.i = icmp ugt i32 %32, %0
  br i1 %.not39.i, label %.critedge.i, label %33

33:                                               ; preds = %30
  %34 = getelementptr inbounds nuw i8, ptr %.245.i, i64 28
  %35 = load i32, ptr %34, align 4
  %36 = icmp ugt i32 %32, %35
  %spec.select41.i = select i1 %36, ptr %.02644.i, ptr %.245.i
  %37 = load ptr, ptr %.02644.i, align 8
  %.not38.i = icmp eq ptr %37, null
  br i1 %.not38.i, label %.critedge.i, label %30, !llvm.loop !13

.critedge.i:                                      ; preds = %33, %30
  %.2.lcssa.i = phi ptr [ %.245.i, %30 ], [ %spec.select41.i, %33 ]
  %.not40.i = icmp eq ptr %.2.lcssa.i, null
  br i1 %.not40.i, label %conversation_lookup_hashtable.exit, label %38

38:                                               ; preds = %.critedge.i
  store ptr %.2.lcssa.i, ptr %25, align 8
  br label %conversation_lookup_hashtable.exit

conversation_lookup_hashtable.exit:               ; preds = %4, %15, %21, %.critedge.i, %38
  %.027.i = phi ptr [ %20, %21 ], [ %.2.lcssa.i, %38 ], [ null, %.critedge.i ], [ null, %15 ], [ null, %4 ]
  call void @llvm.lifetime.end.p0(i64 96, ptr nonnull %5) #15
  ret ptr %.027.i
}